target datalayout = "e-m:e-p270:32:32-p271:32:32-p272:64:64-i64:64-i128:128-f80:128-n8:16:32:64-S128"
target triple = "x86_64-pc-linux-gnu"

%struct.PBE2PARAM_st = type { ptr, ptr }
%struct.X509_algor_st = type { ptr, ptr }

@.str.8 = private unnamed_addr constant [33 x i8] c"../openssl/crypto/evp/p5_crpt2.c\00", align 1
@__func__.PKCS5_v2_PBE_keyivgen_ex = private unnamed_addr constant [25 x i8] c"PKCS5_v2_PBE_keyivgen_ex\00", align 1

; Function Attrs: nounwind uwtable
define i32 @PKCS5_v2_PBE_keyivgen_ex(ptr noundef %0, ptr noundef %1, i32 noundef %2, ptr noundef %3, ptr noundef %4, ptr noundef %5, i32 noundef %6, ptr noundef %7, ptr noundef %8) #0 {
  %10 = alloca ptr, align 8
  %11 = alloca ptr, align 8
  %12 = alloca i32, align 4
  %13 = alloca ptr, align 8
  %14 = alloca ptr, align 8
  %15 = alloca ptr, align 8
  %16 = alloca i32, align 4
  %17 = alloca ptr, align 8
  %18 = alloca ptr, align 8
  %19 = alloca ptr, align 8
  %20 = alloca [80 x i8], align 16
  %21 = alloca ptr, align 8
  %22 = alloca ptr, align 8
  %23 = alloca ptr, align 8
  %24 = alloca i32, align 4
  store ptr %0, ptr %10, align 8, !tbaa !26
  store ptr %1, ptr %11, align 8, !tbaa !3
  store i32 %2, ptr %12, align 4, !tbaa !8
  store ptr %3, ptr %13, align 8, !tbaa !28
  store ptr %4, ptr %14, align 8, !tbaa !30
  store ptr %5, ptr %15, align 8, !tbaa !10
  store i32 %6, ptr %16, align 4, !tbaa !8
  store ptr %7, ptr %17, align 8, !tbaa !12
  store ptr %8, ptr %18, align 8, !tbaa !3
  call void @llvm.lifetime.start.p0(i64 8, ptr %19) #6
  store ptr null, ptr %19, align 8, !tbaa !32
  call void @llvm.lifetime.start.p0(i64 80, ptr %20) #6
  call void @llvm.lifetime.start.p0(i64 8, ptr %21) #6
  store ptr null, ptr %21, align 8, !tbaa !30
  call void @llvm.lifetime.start.p0(i64 8, ptr %22) #6
  store ptr null, ptr %22, align 8, !tbaa !30
  call void @llvm.lifetime.start.p0(i64 8, ptr %23) #6
  call void @llvm.lifetime.start.p0(i64 4, ptr %24) #6
  store i32 0, ptr %24, align 4, !tbaa !8
  %25 = call ptr @PBE2PARAM_it()
  %26 = load ptr, ptr %13, align 8, !tbaa !28
  %27 = call ptr @ASN1_TYPE_unpack_sequence(ptr noundef %25, ptr noundef %26)
  store ptr %27, ptr %19, align 8, !tbaa !32
  %28 = load ptr, ptr %19, align 8, !tbaa !32
  %29 = icmp eq ptr %28, null
  br i1 %29, label %30, label %31

30:                                               ; preds = %9
  call void @ERR_new()
  call void @ERR_set_debug(ptr noundef @.str.8, i32 noundef 127, ptr noundef @__func__.PKCS5_v2_PBE_keyivgen_ex)
  call void (i32, i32, ptr, ...) @ERR_set_error(i32 noundef 6, i32 noundef 114, ptr noundef null)
  br label %99

31:                                               ; preds = %9
  %32 = load ptr, ptr %19, align 8, !tbaa !32
  %33 = getelementptr inbounds nuw %struct.PBE2PARAM_st, ptr %32, i32 0, i32 0
  %34 = load ptr, ptr %33, align 8, !tbaa !34
  %35 = getelementptr inbounds nuw %struct.X509_algor_st, ptr %34, i32 0, i32 0
  %36 = load ptr, ptr %35, align 8, !tbaa !37
  %37 = call i32 @OBJ_obj2nid(ptr noundef %36)
  %38 = call i32 @EVP_PBE_find_ex(i32 noundef 2, i32 noundef %37, ptr noundef null, ptr noundef null, ptr noundef null, ptr noundef %23)
  %39 = icmp ne i32 %38, 0
  br i1 %39, label %41, label %40

40:                                               ; preds = %31
  call void @ERR_new()
  call void @ERR_set_debug(ptr noundef @.str.8, i32 noundef 134, ptr noundef @__func__.PKCS5_v2_PBE_keyivgen_ex)
  call void (i32, i32, ptr, ...) @ERR_set_error(i32 noundef 6, i32 noundef 124, ptr noundef null)
  br label %99

41:                                               ; preds = %31
  %42 = getelementptr inbounds [80 x i8], ptr %20, i64 0, i64 0
  %43 = load ptr, ptr %19, align 8, !tbaa !32
  %44 = getelementptr inbounds nuw %struct.PBE2PARAM_st, ptr %43, i32 0, i32 1
  %45 = load ptr, ptr %44, align 8, !tbaa !40
  %46 = getelementptr inbounds nuw %struct.X509_algor_st, ptr %45, i32 0, i32 0
  %47 = load ptr, ptr %46, align 8, !tbaa !37
  %48 = call i32 @OBJ_obj2txt(ptr noundef %42, i32 noundef 80, ptr noundef %47, i32 noundef 0)
  %49 = icmp sle i32 %48, 0
  br i1 %49, label %50, label %51

50:                                               ; preds = %41
  call void @ERR_new()
  call void @ERR_set_debug(ptr noundef @.str.8, i32 noundef 142, ptr noundef @__func__.PKCS5_v2_PBE_keyivgen_ex)
  call void (i32, i32, ptr, ...) @ERR_set_error(i32 noundef 6, i32 noundef 107, ptr noundef null)
  br label %99

51:                                               ; preds = %41
  %52 = call i32 @ERR_set_mark()
  %53 = load ptr, ptr %17, align 8, !tbaa !12
  %54 = getelementptr inbounds [80 x i8], ptr %20, i64 0, i64 0
  %55 = load ptr, ptr %18, align 8, !tbaa !3
  %56 = call ptr @EVP_CIPHER_fetch(ptr noundef %53, ptr noundef %54, ptr noundef %55)
  store ptr %56, ptr %22, align 8, !tbaa !30
  store ptr %56, ptr %21, align 8, !tbaa !30
  %57 = load ptr, ptr %21, align 8, !tbaa !30
  %58 = icmp eq ptr %57, null
  br i1 %58, label %59, label %62

59:                                               ; preds = %51
  %60 = getelementptr inbounds [80 x i8], ptr %20, i64 0, i64 0
  %61 = call ptr @EVP_get_cipherbyname(ptr noundef %60)
  store ptr %61, ptr %21, align 8, !tbaa !30
  br label %62

62:                                               ; preds = %59, %51
  %63 = load ptr, ptr %21, align 8, !tbaa !30
  %64 = icmp eq ptr %63, null
  br i1 %64, label %65, label %67

65:                                               ; preds = %62
  %66 = call i32 @ERR_clear_last_mark()
  call void @ERR_new()
  call void @ERR_set_debug(ptr noundef @.str.8, i32 noundef 154, ptr noundef @__func__.PKCS5_v2_PBE_keyivgen_ex)
  call void (i32, i32, ptr, ...) @ERR_set_error(i32 noundef 6, i32 noundef 107, ptr noundef null)
  br label %99

67:                                               ; preds = %62
  %68 = call i32 @ERR_pop_to_mark()
  %69 = load ptr, ptr %10, align 8, !tbaa !26
  %70 = load ptr, ptr %21, align 8, !tbaa !30
  %71 = load i32, ptr %16, align 4, !tbaa !8
  %72 = call i32 @EVP_CipherInit_ex(ptr noundef %69, ptr noundef %70, ptr noundef null, ptr noundef null, ptr noundef null, i32 noundef %71)
  %73 = icmp ne i32 %72, 0
  br i1 %73, label %75, label %74

74:                                               ; preds = %67
  br label %99

75:                                               ; preds = %67
  %76 = load ptr, ptr %10, align 8, !tbaa !26
  %77 = load ptr, ptr %19, align 8, !tbaa !32
  %78 = getelementptr inbounds nuw %struct.PBE2PARAM_st, ptr %77, i32 0, i32 1
  %79 = load ptr, ptr %78, align 8, !tbaa !40
  %80 = getelementptr inbounds nuw %struct.X509_algor_st, ptr %79, i32 0, i32 1
  %81 = load ptr, ptr %80, align 8, !tbaa !41
  %82 = call i32 @EVP_CIPHER_asn1_to_param(ptr noundef %76, ptr noundef %81)
  %83 = icmp sle i32 %82, 0
  br i1 %83, label %84, label %85

84:                                               ; preds = %75
  call void @ERR_new()
  call void @ERR_set_debug(ptr noundef @.str.8, i32 noundef 163, ptr noundef @__func__.PKCS5_v2_PBE_keyivgen_ex)
  call void (i32, i32, ptr, ...) @ERR_set_error(i32 noundef 6, i32 noundef 122, ptr noundef null)
  br label %99

85:                                               ; preds = %75
  %86 = load ptr, ptr %23, align 8, !tbaa !21
  %87 = load ptr, ptr %10, align 8, !tbaa !26
  %88 = load ptr, ptr %11, align 8, !tbaa !3
  %89 = load i32, ptr %12, align 4, !tbaa !8
  %90 = load ptr, ptr %19, align 8, !tbaa !32
  %91 = getelementptr inbounds nuw %struct.PBE2PARAM_st, ptr %90, i32 0, i32 0
  %92 = load ptr, ptr %91, align 8, !tbaa !34
  %93 = getelementptr inbounds nuw %struct.X509_algor_st, ptr %92, i32 0, i32 1
  %94 = load ptr, ptr %93, align 8, !tbaa !41
  %95 = load i32, ptr %16, align 4, !tbaa !8
  %96 = load ptr, ptr %17, align 8, !tbaa !12
  %97 = load ptr, ptr %18, align 8, !tbaa !3
  %98 = call i32 %86(ptr noundef %87, ptr noundef %88, i32 noundef %89, ptr noundef %94, ptr noundef null, ptr noundef null, i32 noundef %95, ptr noundef %96, ptr noundef %97)
  store i32 %98, ptr %24, align 4, !tbaa !8
  br label %99

99:                                               ; preds = %85, %84, %74, %65, %50, %40, %30
  %100 = load ptr, ptr %22, align 8, !tbaa !30
  call void @EVP_CIPHER_free(ptr noundef %100)
  %101 = load ptr, ptr %19, align 8, !tbaa !32
  call void @PBE2PARAM_free(ptr noundef %101)
  %102 = load i32, ptr %24, align 4, !tbaa !8
  call void @llvm.lifetime.end.p0(i64 4, ptr %24) #6
  call void @llvm.lifetime.end.p0(i64 8, ptr %23) #6
  call void @llvm.lifetime.end.p0(i64 8, ptr %22) #6
  call void @llvm.lifetime.end.p0(i64 8, ptr %21) #6
  call void @llvm.lifetime.end.p0(i64 80, ptr %20) #6
  call void @llvm.lifetime.end.p0(i64 8, ptr %19) #6
  ret i32 %102
}