; Function Attrs: nounwind uwtable
define i32 @PKCS5_v2_PBE_keyivgen_ex(ptr noundef %0, ptr noundef %1, i32 noundef %2, ptr noundef %3, ptr readnone captures(none) %4, ptr readnone captures(none) %5, i32 noundef %6, ptr noundef %7, ptr noundef %8) local_unnamed_addr #0 {
  %10 = alloca [80 x i8], align 16
  %11 = alloca ptr, align 8
  call void @llvm.lifetime.start.p0(i64 80, ptr nonnull %10) #6
  call void @llvm.lifetime.start.p0(i64 8, ptr nonnull %11) #6
  %12 = tail call ptr @PBE2PARAM_it() #6
  %13 = tail call ptr @ASN1_TYPE_unpack_sequence(ptr noundef %12, ptr noundef %3) #6
  %14 = icmp eq ptr %13, null
  br i1 %14, label %15, label %16

15:                                               ; preds = %9
  tail call void @ERR_new() #6
  tail call void @ERR_set_debug(ptr noundef nonnull @.str.8, i32 noundef 127, ptr noundef nonnull @__func__.PKCS5_v2_PBE_keyivgen_ex) #6
  tail call void (i32, i32, ptr, ...) @ERR_set_error(i32 noundef 6, i32 noundef 114, ptr noundef null) #6
  br label %53

16:                                               ; preds = %9
  %17 = load ptr, ptr %13, align 8, !tbaa !14
  %18 = load ptr, ptr %17, align 8, !tbaa !17
  %19 = tail call i32 @OBJ_obj2nid(ptr noundef %18) #6
  %20 = call i32 @EVP_PBE_find_ex(i32 noundef 2, i32 noundef %19, ptr noundef null, ptr noundef null, ptr noundef null, ptr noundef nonnull %11) #6
  %.not = icmp eq i32 %20, 0
  br i1 %.not, label %21, label %22

21:                                               ; preds = %16
  call void @ERR_new() #6
  call void @ERR_set_debug(ptr noundef nonnull @.str.8, i32 noundef 134, ptr noundef nonnull @__func__.PKCS5_v2_PBE_keyivgen_ex) #6
  call void (i32, i32, ptr, ...) @ERR_set_error(i32 noundef 6, i32 noundef 124, ptr noundef null) #6
  br label %53

22:                                               ; preds = %16
  %23 = getelementptr inbounds nuw i8, ptr %13, i64 8
  %24 = load ptr, ptr %23, align 8, !tbaa !21
  %25 = load ptr, ptr %24, align 8, !tbaa !17
  %26 = call i32 @OBJ_obj2txt(ptr noundef nonnull %10, i32 noundef 80, ptr noundef %25, i32 noundef 0) #6
  %27 = icmp slt i32 %26, 1
  br i1 %27, label %28, label %29

28:                                               ; preds = %22
  call void @ERR_new() #6
  call void @ERR_set_debug(ptr noundef nonnull @.str.8, i32 noundef 142, ptr noundef nonnull @__func__.PKCS5_v2_PBE_keyivgen_ex) #6
  call void (i32, i32, ptr, ...) @ERR_set_error(i32 noundef 6, i32 noundef 107, ptr noundef null) #6
  br label %53

29:                                               ; preds = %22
  %30 = call i32 @ERR_set_mark() #6
  %31 = call ptr @EVP_CIPHER_fetch(ptr noundef %7, ptr noundef nonnull %10, ptr noundef %8) #6
  %32 = icmp eq ptr %31, null
  br i1 %32, label %33, label %.thread

33:                                               ; preds = %29
  %34 = call ptr @EVP_get_cipherbyname(ptr noundef nonnull %10) #6
  %35 = icmp eq ptr %34, null
  br i1 %35, label %36, label %.thread

36:                                               ; preds = %33
  %37 = call i32 @ERR_clear_last_mark() #6
  call void @ERR_new() #6
  call void @ERR_set_debug(ptr noundef nonnull @.str.8, i32 noundef 154, ptr noundef nonnull @__func__.PKCS5_v2_PBE_keyivgen_ex) #6
  call void (i32, i32, ptr, ...) @ERR_set_error(i32 noundef 6, i32 noundef 107, ptr noundef null) #6
  br label %53

.thread:                                          ; preds = %29, %33
  %.02328 = phi ptr [ %34, %33 ], [ %31, %29 ]
  %38 = call i32 @ERR_pop_to_mark() #6
  %39 = call i32 @EVP_CipherInit_ex(ptr noundef %0, ptr noundef nonnull %.02328, ptr noundef null, ptr noundef null, ptr noundef null, i32 noundef %6) #6
  %.not26 = icmp eq i32 %39, 0
  br i1 %.not26, label %53, label %40

40:                                               ; preds = %.thread
  %41 = load ptr, ptr %23, align 8, !tbaa !21
  %42 = getelementptr inbounds nuw i8, ptr %41, i64 8
  %43 = load ptr, ptr %42, align 8, !tbaa !22
  %44 = call i32 @EVP_CIPHER_asn1_to_param(ptr noundef %0, ptr noundef %43) #6
  %45 = icmp slt i32 %44, 1
  br i1 %45, label %46, label %47

46:                                               ; preds = %40
  call void @ERR_new() #6
  call void @ERR_set_debug(ptr noundef nonnull @.str.8, i32 noundef 163, ptr noundef nonnull @__func__.PKCS5_v2_PBE_keyivgen_ex) #6
  call void (i32, i32, ptr, ...) @ERR_set_error(i32 noundef 6, i32 noundef 122, ptr noundef null) #6
  br label %53

47:                                               ; preds = %40
  %48 = load ptr, ptr %11, align 8, !tbaa !11
  %49 = load ptr, ptr %13, align 8, !tbaa !14
  %50 = getelementptr inbounds nuw i8, ptr %49, i64 8
  %51 = load ptr, ptr %50, align 8, !tbaa !22
  %52 = call i32 %48(ptr noundef %0, ptr noundef %1, i32 noundef %2, ptr noundef %51, ptr noundef null, ptr noundef null, i32 noundef %6, ptr noundef %7, ptr noundef %8) #6
  br label %53

53:                                               ; preds = %.thread, %47, %46, %36, %28, %21, %15
  %.022 = phi ptr [ null, %15 ], [ null, %28 ], [ null, %36 ], [ %31, %46 ], [ %31, %47 ], [ %31, %.thread ], [ null, %21 ]
  %.0 = phi i32 [ 0, %15 ], [ 0, %28 ], [ 0, %36 ], [ 0, %46 ], [ %52, %47 ], [ 0, %.thread ], [ 0, %21 ]
  call void @EVP_CIPHER_free(ptr noundef %.022) #6
  call void @PBE2PARAM_free(ptr noundef %13) #6
  call void @llvm.lifetime.end.p0(i64 8, ptr nonnull %11) #6
  call void @llvm.lifetime.end.p0(i64 80, ptr nonnull %10) #6
  ret i32 %.0
}